
overflow_interrupts.elf:     file format elf32-avr

Sections:
Idx Name          Size      VMA       LMA       File off  Algn
  0 .data         00000000  00800100  00800100  0000022a  2**0
                  CONTENTS, ALLOC, LOAD, DATA
  1 .text         000001d6  00000000  00000000  00000054  2**1
                  CONTENTS, ALLOC, LOAD, READONLY, CODE
  2 .comment      00000030  00000000  00000000  0000022a  2**0
                  CONTENTS, READONLY
  3 .note.gnu.avr.deviceinfo 00000040  00000000  00000000  0000025c  2**2
                  CONTENTS, READONLY
  4 .debug_aranges 00000078  00000000  00000000  0000029c  2**0
                  CONTENTS, READONLY, DEBUGGING
  5 .debug_info   00000970  00000000  00000000  00000314  2**0
                  CONTENTS, READONLY, DEBUGGING
  6 .debug_abbrev 000006e5  00000000  00000000  00000c84  2**0
                  CONTENTS, READONLY, DEBUGGING
  7 .debug_line   00000373  00000000  00000000  00001369  2**0
                  CONTENTS, READONLY, DEBUGGING
  8 .debug_frame  00000100  00000000  00000000  000016dc  2**2
                  CONTENTS, READONLY, DEBUGGING
  9 .debug_str    0000041a  00000000  00000000  000017dc  2**0
                  CONTENTS, READONLY, DEBUGGING
 10 .debug_loc    0000015d  00000000  00000000  00001bf6  2**0
                  CONTENTS, READONLY, DEBUGGING
 11 .debug_ranges 00000058  00000000  00000000  00001d53  2**0
                  CONTENTS, READONLY, DEBUGGING

Disassembly of section .text:

00000000 <__vectors>:
   0:	0c 94 34 00 	jmp	0x68	; 0x68 <__ctors_end>
   4:	0c 94 3e 00 	jmp	0x7c	; 0x7c <__bad_interrupt>
   8:	0c 94 3e 00 	jmp	0x7c	; 0x7c <__bad_interrupt>
   c:	0c 94 3e 00 	jmp	0x7c	; 0x7c <__bad_interrupt>
  10:	0c 94 3e 00 	jmp	0x7c	; 0x7c <__bad_interrupt>
  14:	0c 94 3e 00 	jmp	0x7c	; 0x7c <__bad_interrupt>
  18:	0c 94 3e 00 	jmp	0x7c	; 0x7c <__bad_interrupt>
  1c:	0c 94 3e 00 	jmp	0x7c	; 0x7c <__bad_interrupt>
  20:	0c 94 3e 00 	jmp	0x7c	; 0x7c <__bad_interrupt>
  24:	0c 94 3e 00 	jmp	0x7c	; 0x7c <__bad_interrupt>
  28:	0c 94 3e 00 	jmp	0x7c	; 0x7c <__bad_interrupt>
  2c:	0c 94 3e 00 	jmp	0x7c	; 0x7c <__bad_interrupt>
  30:	0c 94 3e 00 	jmp	0x7c	; 0x7c <__bad_interrupt>
  34:	0c 94 c2 00 	jmp	0x184	; 0x184 <__vector_13>
  38:	0c 94 3e 00 	jmp	0x7c	; 0x7c <__bad_interrupt>
  3c:	0c 94 3e 00 	jmp	0x7c	; 0x7c <__bad_interrupt>
  40:	0c 94 3e 00 	jmp	0x7c	; 0x7c <__bad_interrupt>
  44:	0c 94 3e 00 	jmp	0x7c	; 0x7c <__bad_interrupt>
  48:	0c 94 3e 00 	jmp	0x7c	; 0x7c <__bad_interrupt>
  4c:	0c 94 3e 00 	jmp	0x7c	; 0x7c <__bad_interrupt>
  50:	0c 94 3e 00 	jmp	0x7c	; 0x7c <__bad_interrupt>
  54:	0c 94 3e 00 	jmp	0x7c	; 0x7c <__bad_interrupt>
  58:	0c 94 3e 00 	jmp	0x7c	; 0x7c <__bad_interrupt>
  5c:	0c 94 3e 00 	jmp	0x7c	; 0x7c <__bad_interrupt>
  60:	0c 94 3e 00 	jmp	0x7c	; 0x7c <__bad_interrupt>
  64:	0c 94 3e 00 	jmp	0x7c	; 0x7c <__bad_interrupt>

00000068 <__ctors_end>:
  68:	11 24       	eor	r1, r1
  6a:	1f be       	out	0x3f, r1	; 63
  6c:	cf ef       	ldi	r28, 0xFF	; 255
  6e:	d8 e0       	ldi	r29, 0x08	; 8
  70:	de bf       	out	0x3e, r29	; 62
  72:	cd bf       	out	0x3d, r28	; 61
  74:	0e 94 8c 00 	call	0x118	; 0x118 <main>
  78:	0c 94 e9 00 	jmp	0x1d2	; 0x1d2 <_exit>

0000007c <__bad_interrupt>:
  7c:	0c 94 00 00 	jmp	0	; 0x0 <__vectors>

00000080 <GPIO_config_output>:

/**********************************************************************
 * Function: GPIO_write_high()
 **********************************************************************/
void GPIO_write_high( volatile uint8_t *reg_name, uint8_t pin_num){
	*reg_name = *reg_name | ~(1<<pin_num);
  80:	fc 01       	movw	r30, r24
  82:	40 81       	ld	r20, Z
  84:	21 e0       	ldi	r18, 0x01	; 1
  86:	30 e0       	ldi	r19, 0x00	; 0
  88:	02 c0       	rjmp	.+4      	; 0x8e <GPIO_config_output+0xe>
  8a:	22 0f       	add	r18, r18
  8c:	33 1f       	adc	r19, r19
  8e:	6a 95       	dec	r22
  90:	e2 f7       	brpl	.-8      	; 0x8a <GPIO_config_output+0xa>
  92:	24 2b       	or	r18, r20
  94:	20 83       	st	Z, r18
  96:	08 95       	ret

00000098 <GPIO_config_input_nopull>:
  98:	fc 01       	movw	r30, r24
  9a:	80 81       	ld	r24, Z
  9c:	21 e0       	ldi	r18, 0x01	; 1
  9e:	30 e0       	ldi	r19, 0x00	; 0
  a0:	02 c0       	rjmp	.+4      	; 0xa6 <GPIO_config_input_nopull+0xe>
  a2:	22 0f       	add	r18, r18
  a4:	33 1f       	adc	r19, r19
  a6:	6a 95       	dec	r22
  a8:	e2 f7       	brpl	.-8      	; 0xa2 <GPIO_config_input_nopull+0xa>
  aa:	92 2f       	mov	r25, r18
  ac:	90 95       	com	r25
  ae:	89 23       	and	r24, r25
  b0:	80 83       	st	Z, r24
  b2:	81 81       	ldd	r24, Z+1	; 0x01
  b4:	28 2b       	or	r18, r24
  b6:	21 83       	std	Z+1, r18	; 0x01
  b8:	08 95       	ret

000000ba <GPIO_write_low>:
  ba:	fc 01       	movw	r30, r24
  bc:	90 81       	ld	r25, Z
  be:	21 e0       	ldi	r18, 0x01	; 1
  c0:	30 e0       	ldi	r19, 0x00	; 0
  c2:	02 c0       	rjmp	.+4      	; 0xc8 <GPIO_write_low+0xe>
  c4:	22 0f       	add	r18, r18
  c6:	33 1f       	adc	r19, r19
  c8:	6a 95       	dec	r22
  ca:	e2 f7       	brpl	.-8      	; 0xc4 <GPIO_write_low+0xa>
  cc:	20 95       	com	r18
  ce:	29 23       	and	r18, r25
  d0:	20 83       	st	Z, r18
  d2:	08 95       	ret

000000d4 <GPIO_toggle>:

/**********************************************************************
 * Function: GPIO_toggle()
 **********************************************************************/
void GPIO_toggle(volatile uint8_t *reg_name, uint8_t pin_num){
	*reg_name = *reg_name ^ (1<<pin_num);
  d4:	fc 01       	movw	r30, r24
  d6:	40 81       	ld	r20, Z
  d8:	21 e0       	ldi	r18, 0x01	; 1
  da:	30 e0       	ldi	r19, 0x00	; 0
  dc:	02 c0       	rjmp	.+4      	; 0xe2 <GPIO_toggle+0xe>
  de:	22 0f       	add	r18, r18
  e0:	33 1f       	adc	r19, r19
  e2:	6a 95       	dec	r22
  e4:	e2 f7       	brpl	.-8      	; 0xde <GPIO_toggle+0xa>
  e6:	24 27       	eor	r18, r20
  e8:	20 83       	st	Z, r18
  ea:	08 95       	ret

000000ec <GPIO_read>:
/**********************************************************************
 * Function: GPIO_read()
 **********************************************************************/
uint8_t GPIO_read(volatile uint8_t *reg_name, uint8_t pin_num){
	
		if((*reg_name & ~(1 << pin_num)) == 0)
  ec:	fc 01       	movw	r30, r24
  ee:	40 81       	ld	r20, Z
  f0:	81 e0       	ldi	r24, 0x01	; 1
  f2:	90 e0       	ldi	r25, 0x00	; 0
  f4:	02 c0       	rjmp	.+4      	; 0xfa <GPIO_read+0xe>
  f6:	88 0f       	add	r24, r24
  f8:	99 1f       	adc	r25, r25
  fa:	6a 95       	dec	r22
  fc:	e2 f7       	brpl	.-8      	; 0xf6 <GPIO_read+0xa>
  fe:	9c 01       	movw	r18, r24
 100:	20 95       	com	r18
 102:	30 95       	com	r19
 104:	84 2f       	mov	r24, r20
 106:	90 e0       	ldi	r25, 0x00	; 0
 108:	82 23       	and	r24, r18
 10a:	93 23       	and	r25, r19
 10c:	89 2b       	or	r24, r25
 10e:	11 f4       	brne	.+4      	; 0x114 <GPIO_read+0x28>
			return (0); 
 110:	80 e0       	ldi	r24, 0x00	; 0
 112:	08 95       	ret
		else 
			return (1);
 114:	81 e0       	ldi	r24, 0x01	; 1
		
 116:	08 95       	ret

00000118 <main>:
 * Returns:  none
 **********************************************************************/
int main(void)
{
    // Configuration of LED(s) at port B
    GPIO_config_output(&DDRB, LED_D1);
 118:	65 e0       	ldi	r22, 0x05	; 5
 11a:	84 e2       	ldi	r24, 0x24	; 36
 11c:	90 e0       	ldi	r25, 0x00	; 0
 11e:	0e 94 40 00 	call	0x80	; 0x80 <GPIO_config_output>
    GPIO_write_low(&PORTB, LED_D1);
 122:	65 e0       	ldi	r22, 0x05	; 5
 124:	85 e2       	ldi	r24, 0x25	; 37
 126:	90 e0       	ldi	r25, 0x00	; 0
 128:	0e 94 5d 00 	call	0xba	; 0xba <GPIO_write_low>

    // Configuration of 16-bit Timer/Counter1 for LED blinking
    // Set the overflow prescaler to 262 ms and enable interrupt
    TIM1_overflow_262ms();
 12c:	e1 e8       	ldi	r30, 0x81	; 129
 12e:	f0 e0       	ldi	r31, 0x00	; 0
 130:	80 81       	ld	r24, Z
 132:	8b 7f       	andi	r24, 0xFB	; 251
 134:	80 83       	st	Z, r24
 136:	80 81       	ld	r24, Z
 138:	83 60       	ori	r24, 0x03	; 3
 13a:	80 83       	st	Z, r24
    TIM1_overflow_interrupt_enable();
 13c:	ef e6       	ldi	r30, 0x6F	; 111
 13e:	f0 e0       	ldi	r31, 0x00	; 0
 140:	80 81       	ld	r24, Z
 142:	81 60       	ori	r24, 0x01	; 1
 144:	80 83       	st	Z, r24
	
	//config push button at port C 
	
	GPIO_config_input_nopull(&DDRC, BTN_S3);
 146:	63 e0       	ldi	r22, 0x03	; 3
 148:	87 e2       	ldi	r24, 0x27	; 39
 14a:	90 e0       	ldi	r25, 0x00	; 0
 14c:	0e 94 4c 00 	call	0x98	; 0x98 <GPIO_config_input_nopull>

    // Enables interrupts by setting the global interrupt mask
    sei();
 150:	78 94       	sei
    // Infinite loop
    while (1)
    {
        /* Empty loop. All subsequent operations are performed exclusively 
         * inside interrupt service routines ISRs */
		if (GPIO_read(&PINC, BTN_S3) == 0){
 152:	63 e0       	ldi	r22, 0x03	; 3
 154:	86 e2       	ldi	r24, 0x26	; 38
 156:	90 e0       	ldi	r25, 0x00	; 0
 158:	0e 94 76 00 	call	0xec	; 0xec <GPIO_read>
 15c:	81 11       	cpse	r24, r1
 15e:	09 c0       	rjmp	.+18     	; 0x172 <main+0x5a>
			TIM1_overflow_33ms();
 160:	e1 e8       	ldi	r30, 0x81	; 129
 162:	f0 e0       	ldi	r31, 0x00	; 0
 164:	80 81       	ld	r24, Z
 166:	8a 7f       	andi	r24, 0xFA	; 250
 168:	80 83       	st	Z, r24
 16a:	80 81       	ld	r24, Z
 16c:	82 60       	ori	r24, 0x02	; 2
 16e:	80 83       	st	Z, r24
 170:	f0 cf       	rjmp	.-32     	; 0x152 <main+0x3a>
		}
		else{
			TIM1_overflow_262ms();
 172:	e1 e8       	ldi	r30, 0x81	; 129
 174:	f0 e0       	ldi	r31, 0x00	; 0
 176:	80 81       	ld	r24, Z
 178:	8b 7f       	andi	r24, 0xFB	; 251
 17a:	80 83       	st	Z, r24
 17c:	80 81       	ld	r24, Z
 17e:	83 60       	ori	r24, 0x03	; 3
 180:	80 83       	st	Z, r24
 182:	e7 cf       	rjmp	.-50     	; 0x152 <main+0x3a>

00000184 <__vector_13>:
/**********************************************************************
 * Function: Timer/Counter1 overflow interrupt
 * Purpose:  Toggle D1 LED on Multi-function shield.
 **********************************************************************/
ISR(TIMER1_OVF_vect)
{
 184:	1f 92       	push	r1
 186:	0f 92       	push	r0
 188:	0f b6       	in	r0, 0x3f	; 63
 18a:	0f 92       	push	r0
 18c:	11 24       	eor	r1, r1
 18e:	2f 93       	push	r18
 190:	3f 93       	push	r19
 192:	4f 93       	push	r20
 194:	5f 93       	push	r21
 196:	6f 93       	push	r22
 198:	7f 93       	push	r23
 19a:	8f 93       	push	r24
 19c:	9f 93       	push	r25
 19e:	af 93       	push	r26
 1a0:	bf 93       	push	r27
 1a2:	ef 93       	push	r30
 1a4:	ff 93       	push	r31
	GPIO_toggle(&PORTB,LED_D1);
 1a6:	65 e0       	ldi	r22, 0x05	; 5
 1a8:	85 e2       	ldi	r24, 0x25	; 37
 1aa:	90 e0       	ldi	r25, 0x00	; 0
 1ac:	0e 94 6a 00 	call	0xd4	; 0xd4 <GPIO_toggle>
    // WRITE YOUR CODE HERE

}
 1b0:	ff 91       	pop	r31
 1b2:	ef 91       	pop	r30
 1b4:	bf 91       	pop	r27
 1b6:	af 91       	pop	r26
 1b8:	9f 91       	pop	r25
 1ba:	8f 91       	pop	r24
 1bc:	7f 91       	pop	r23
 1be:	6f 91       	pop	r22
 1c0:	5f 91       	pop	r21
 1c2:	4f 91       	pop	r20
 1c4:	3f 91       	pop	r19
 1c6:	2f 91       	pop	r18
 1c8:	0f 90       	pop	r0
 1ca:	0f be       	out	0x3f, r0	; 63
 1cc:	0f 90       	pop	r0
 1ce:	1f 90       	pop	r1
 1d0:	18 95       	reti

000001d2 <_exit>:
 1d2:	f8 94       	cli

000001d4 <__stop_program>:
 1d4:	ff cf       	rjmp	.-2      	; 0x1d4 <__stop_program>
